; Function Attrs: mustprogress uwtable
define hidden void @_ZN6Assimp3FBX4Node19DumpPropertiesAsciiERSoi(ptr noundef nonnull readonly align 8 captures(none) dereferenceable(112) %0, ptr noundef nonnull align 8 dereferenceable(8) %1, i32 noundef %2) local_unnamed_addr #3 align 2 {
  %4 = getelementptr inbounds nuw i8, ptr %0, i64 32
  %5 = getelementptr inbounds nuw i8, ptr %0, i64 40
  %6 = load ptr, ptr %5, align 8
  %7 = load ptr, ptr %4, align 8
  %.not8 = icmp eq ptr %6, %7
  br i1 %.not8, label %._crit_edge, label %.lr.ph

._crit_edge:                                      ; preds = %11, %3
  ret void

.lr.ph:                                           ; preds = %3, %11
  %8 = phi ptr [ %16, %11 ], [ %7, %3 ]
  %.07 = phi i64 [ %14, %11 ], [ 0, %3 ]
  %.not = icmp eq i64 %.07, 0
  br i1 %.not, label %11, label %9

9:                                                ; preds = %.lr.ph
  %10 = tail call noundef nonnull align 8 dereferenceable(8) ptr @_ZSt16__ostream_insertIcSt11char_traitsIcEERSt13basic_ostreamIT_T0_ES6_PKS3_l(ptr noundef nonnull align 8 dereferenceable(8) %1, ptr noundef nonnull @.str.20, i64 noundef 2)
  %.pre = load ptr, ptr %4, align 8
  br label %11

11:                                               ; preds = %9, %.lr.ph
  %12 = phi ptr [ %.pre, %9 ], [ %8, %.lr.ph ]
  %13 = getelementptr inbounds nuw %"class.Assimp::FBX::FBXExportProperty", ptr %12, i64 %.07
  tail call void @_ZN6Assimp3FBX17FBXExportProperty9DumpAsciiERSoi(ptr noundef nonnull align 8 dereferenceable(32) %13, ptr noundef nonnull align 8 dereferenceable(8) %1, i32 noundef %2)
  %14 = add nuw i64 %.07, 1
  %15 = load ptr, ptr %5, align 8
  %16 = load ptr, ptr %4, align 8
  %17 = ptrtoint ptr %15 to i64
  %18 = ptrtoint ptr %16 to i64
  %19 = sub i64 %17, %18
  %20 = ashr exact i64 %19, 5
  %21 = icmp ult i64 %14, %20
  br i1 %21, label %.lr.ph, label %._crit_edge, !llvm.loop !15
}